target datalayout = "e-m:e-p270:32:32-p271:32:32-p272:64:64-i64:64-i128:128-f80:128-n8:16:32:64-S128"
target triple = "x86_64-pc-linux-gnu"

%struct.pg_enc2name = type { ptr, i32 }

@pg_enc2name_tbl = external constant [0 x %struct.pg_enc2name], align 8
@.str = private unnamed_addr constant [46 x i8] c"conversion between %s and %s is not supported\00", align 1
@.str.1 = private unnamed_addr constant [10 x i8] c"mbutils.c\00", align 1
@Utf8ToServerConvProc = internal global ptr null, align 8
@DatabaseEncoding = internal global ptr @pg_enc2name_tbl, align 8
@.str.10 = private unnamed_addr constant [27 x i8] c"invalid Unicode code point\00", align 1
@__func__.pg_unicode_to_server = private unnamed_addr constant [21 x i8] c"pg_unicode_to_server\00", align 1

; Function Attrs: inlinehint nounwind uwtable
define internal i64 @PointerGetDatum(ptr noundef %0) #0 {
  %2 = alloca ptr, align 8
  store ptr %0, ptr %2, align 8
  %3 = load ptr, ptr %2, align 8
  %4 = ptrtoint ptr %3 to i64
  ret i64 %4
}

; Function Attrs: inlinehint nounwind uwtable
define internal i64 @BoolGetDatum(i1 noundef zeroext %0) #0 {
  %2 = alloca i8, align 1
  %3 = zext i1 %0 to i8
  store i8 %3, ptr %2, align 1
  %4 = load i8, ptr %2, align 1, !range !4, !noundef !5
  %5 = trunc i8 %4 to i1
  %6 = select i1 %5, i32 1, i32 0
  %7 = sext i32 %6 to i64
  ret i64 %7
}

; Function Attrs: inlinehint nounwind uwtable
define internal i64 @CStringGetDatum(ptr noundef %0) #0 {
  %2 = alloca ptr, align 8
  store ptr %0, ptr %2, align 8
  %3 = load ptr, ptr %2, align 8
  %4 = call i64 @PointerGetDatum(ptr noundef %3)
  ret i64 %4
}

; Function Attrs: inlinehint nounwind uwtable
define internal i64 @Int32GetDatum(i32 noundef %0) #0 {
  %2 = alloca i32, align 4
  store i32 %0, ptr %2, align 4
  %3 = load i32, ptr %2, align 4
  %4 = sext i32 %3 to i64
  ret i64 %4
}

; Function Attrs: nounwind uwtable
define dso_local ptr @GetDatabaseEncodingName() #1 {
  %1 = load ptr, ptr @DatabaseEncoding, align 8
  %2 = getelementptr inbounds nuw %struct.pg_enc2name, ptr %1, i32 0, i32 0
  %3 = load ptr, ptr %2, align 8
  ret ptr %3
}

; Function Attrs: inlinehint nounwind uwtable
define internal ptr @unicode_to_utf8(i32 noundef %0, ptr noundef %1) #0 {
  %3 = alloca i32, align 4
  %4 = alloca ptr, align 8
  store i32 %0, ptr %3, align 4
  store ptr %1, ptr %4, align 8
  %5 = load i32, ptr %3, align 4
  %6 = icmp ule i32 %5, 127
  br i1 %6, label %7, label %12

7:                                                ; preds = %2
  %8 = load i32, ptr %3, align 4
  %9 = trunc i32 %8 to i8
  %10 = load ptr, ptr %4, align 8
  %11 = getelementptr inbounds i8, ptr %10, i64 0
  store i8 %9, ptr %11, align 1
  br label %83

12:                                               ; preds = %2
  %13 = load i32, ptr %3, align 4
  %14 = icmp ule i32 %13, 2047
  br i1 %14, label %15, label %29

15:                                               ; preds = %12
  %16 = load i32, ptr %3, align 4
  %17 = lshr i32 %16, 6
  %18 = and i32 %17, 31
  %19 = or i32 192, %18
  %20 = trunc i32 %19 to i8
  %21 = load ptr, ptr %4, align 8
  %22 = getelementptr inbounds i8, ptr %21, i64 0
  store i8 %20, ptr %22, align 1
  %23 = load i32, ptr %3, align 4
  %24 = and i32 %23, 63
  %25 = or i32 128, %24
  %26 = trunc i32 %25 to i8
  %27 = load ptr, ptr %4, align 8
  %28 = getelementptr inbounds i8, ptr %27, i64 1
  store i8 %26, ptr %28, align 1
  br label %82

29:                                               ; preds = %12
  %30 = load i32, ptr %3, align 4
  %31 = icmp ule i32 %30, 65535
  br i1 %31, label %32, label %53

32:                                               ; preds = %29
  %33 = load i32, ptr %3, align 4
  %34 = lshr i32 %33, 12
  %35 = and i32 %34, 15
  %36 = or i32 224, %35
  %37 = trunc i32 %36 to i8
  %38 = load ptr, ptr %4, align 8
  %39 = getelementptr inbounds i8, ptr %38, i64 0
  store i8 %37, ptr %39, align 1
  %40 = load i32, ptr %3, align 4
  %41 = lshr i32 %40, 6
  %42 = and i32 %41, 63
  %43 = or i32 128, %42
  %44 = trunc i32 %43 to i8
  %45 = load ptr, ptr %4, align 8
  %46 = getelementptr inbounds i8, ptr %45, i64 1
  store i8 %44, ptr %46, align 1
  %47 = load i32, ptr %3, align 4
  %48 = and i32 %47, 63
  %49 = or i32 128, %48
  %50 = trunc i32 %49 to i8
  %51 = load ptr, ptr %4, align 8
  %52 = getelementptr inbounds i8, ptr %51, i64 2
  store i8 %50, ptr %52, align 1
  br label %81

53:                                               ; preds = %29
  %54 = load i32, ptr %3, align 4
  %55 = lshr i32 %54, 18
  %56 = and i32 %55, 7
  %57 = or i32 240, %56
  %58 = trunc i32 %57 to i8
  %59 = load ptr, ptr %4, align 8
  %60 = getelementptr inbounds i8, ptr %59, i64 0
  store i8 %58, ptr %60, align 1
  %61 = load i32, ptr %3, align 4
  %62 = lshr i32 %61, 12
  %63 = and i32 %62, 63
  %64 = or i32 128, %63
  %65 = trunc i32 %64 to i8
  %66 = load ptr, ptr %4, align 8
  %67 = getelementptr inbounds i8, ptr %66, i64 1
  store i8 %65, ptr %67, align 1
  %68 = load i32, ptr %3, align 4
  %69 = lshr i32 %68, 6
  %70 = and i32 %69, 63
  %71 = or i32 128, %70
  %72 = trunc i32 %71 to i8
  %73 = load ptr, ptr %4, align 8
  %74 = getelementptr inbounds i8, ptr %73, i64 2
  store i8 %72, ptr %74, align 1
  %75 = load i32, ptr %3, align 4
  %76 = and i32 %75, 63
  %77 = or i32 128, %76
  %78 = trunc i32 %77 to i8
  %79 = load ptr, ptr %4, align 8
  %80 = getelementptr inbounds i8, ptr %79, i64 3
  store i8 %78, ptr %80, align 1
  br label %81

81:                                               ; preds = %53, %32
  br label %82

82:                                               ; preds = %81, %15
  br label %83

83:                                               ; preds = %82, %7
  %84 = load ptr, ptr %4, align 8
  ret ptr %84
}

; Function Attrs: nounwind uwtable
define dso_local i32 @GetDatabaseEncoding() #1 {
  %1 = load ptr, ptr @DatabaseEncoding, align 8
  %2 = getelementptr inbounds nuw %struct.pg_enc2name, ptr %1, i32 0, i32 1
  %3 = load i32, ptr %2, align 8
  ret i32 %3
}

; Function Attrs: inlinehint nounwind uwtable
define internal zeroext i1 @is_valid_unicode_codepoint(i32 noundef %0) #0 {
  %2 = alloca i32, align 4
  store i32 %0, ptr %2, align 4
  %3 = load i32, ptr %2, align 4
  %4 = icmp ugt i32 %3, 0
  br i1 %4, label %5, label %8

5:                                                ; preds = %1
  %6 = load i32, ptr %2, align 4
  %7 = icmp ule i32 %6, 1114111
  br label %8

8:                                                ; preds = %5, %1
  %9 = phi i1 [ false, %1 ], [ %7, %5 ]
  ret i1 %9
}

; Function Attrs: nounwind uwtable
define dso_local void @pg_unicode_to_server(i32 noundef %0, ptr noundef %1) #1 {
  %3 = alloca i32, align 4
  %4 = alloca ptr, align 8
  %5 = alloca [5 x i8], align 1
  %6 = alloca i32, align 4
  %7 = alloca i32, align 4
  %8 = alloca i32, align 4
  store i32 %0, ptr %3, align 4
  store ptr %1, ptr %4, align 8
  call void @llvm.lifetime.start.p0(i64 5, ptr %5) #9
  call void @llvm.lifetime.start.p0(i64 4, ptr %6) #9
  call void @llvm.lifetime.start.p0(i64 4, ptr %7) #9
  %9 = load i32, ptr %3, align 4
  %10 = call zeroext i1 @is_valid_unicode_codepoint(i32 noundef %9)
  br i1 %10, label %23, label %11

11:                                               ; preds = %2
  br label %12

12:                                               ; preds = %11
  br i1 true, label %13, label %15

13:                                               ; preds = %12
  %14 = call zeroext i1 @errstart_cold(i32 noundef 21, ptr noundef null) #10
  br i1 %14, label %17, label %20

15:                                               ; preds = %12
  %16 = call zeroext i1 @errstart(i32 noundef 21, ptr noundef null)
  br i1 %16, label %17, label %20

17:                                               ; preds = %15, %13
  %18 = call i32 @errcode(i32 noundef 16801924)
  %19 = call i32 (ptr, ...) @errmsg(ptr noundef @.str.10)
  call void @errfinish(ptr noundef @.str.1, i32 noundef 877, ptr noundef @__func__.pg_unicode_to_server)
  br label %20

20:                                               ; preds = %17, %15, %13
  unreachable

21:                                               ; No predecessors!
  br label %22

22:                                               ; preds = %21
  br label %23

23:                                               ; preds = %22, %2
  %24 = load i32, ptr %3, align 4
  %25 = icmp ule i32 %24, 127
  br i1 %25, label %26, label %33

26:                                               ; preds = %23
  %27 = load i32, ptr %3, align 4
  %28 = trunc i32 %27 to i8
  %29 = load ptr, ptr %4, align 8
  %30 = getelementptr inbounds i8, ptr %29, i64 0
  store i8 %28, ptr %30, align 1
  %31 = load ptr, ptr %4, align 8
  %32 = getelementptr inbounds i8, ptr %31, i64 1
  store i8 0, ptr %32, align 1
  store i32 1, ptr %8, align 4
  br label %84

33:                                               ; preds = %23
  %34 = call i32 @GetDatabaseEncoding()
  store i32 %34, ptr %7, align 4
  %35 = load i32, ptr %7, align 4
  %36 = icmp eq i32 %35, 6
  br i1 %36, label %37, label %46

37:                                               ; preds = %33
  %38 = load i32, ptr %3, align 4
  %39 = load ptr, ptr %4, align 8
  %40 = call ptr @unicode_to_utf8(i32 noundef %38, ptr noundef %39)
  %41 = load ptr, ptr %4, align 8
  %42 = load ptr, ptr %4, align 8
  %43 = call i32 @pg_utf_mblen_private(ptr noundef %42)
  %44 = sext i32 %43 to i64
  %45 = getelementptr inbounds i8, ptr %41, i64 %44
  store i8 0, ptr %45, align 1
  store i32 1, ptr %8, align 4
  br label %84

46:                                               ; preds = %33
  %47 = load ptr, ptr @Utf8ToServerConvProc, align 8
  %48 = icmp eq ptr %47, null
  br i1 %48, label %49, label %63

49:                                               ; preds = %46
  br label %50

50:                                               ; preds = %49
  br i1 true, label %51, label %53

51:                                               ; preds = %50
  %52 = call zeroext i1 @errstart_cold(i32 noundef 21, ptr noundef null) #10
  br i1 %52, label %55, label %60

53:                                               ; preds = %50
  %54 = call zeroext i1 @errstart(i32 noundef 21, ptr noundef null)
  br i1 %54, label %55, label %60

55:                                               ; preds = %53, %51
  %56 = call i32 @errcode(i32 noundef 1088)
  %57 = load ptr, ptr getelementptr inbounds ([0 x %struct.pg_enc2name], ptr @pg_enc2name_tbl, i64 0, i64 6), align 8
  %58 = call ptr @GetDatabaseEncodingName()
  %59 = call i32 (ptr, ...) @errmsg(ptr noundef @.str, ptr noundef %57, ptr noundef %58)
  call void @errfinish(ptr noundef @.str.1, i32 noundef 902, ptr noundef @__func__.pg_unicode_to_server)
  br label %60

60:                                               ; preds = %55, %53, %51
  unreachable

61:                                               ; No predecessors!
  br label %62

62:                                               ; preds = %61
  br label %63

63:                                               ; preds = %62, %46
  %64 = load i32, ptr %3, align 4
  %65 = getelementptr inbounds [5 x i8], ptr %5, i64 0, i64 0
  %66 = call ptr @unicode_to_utf8(i32 noundef %64, ptr noundef %65)
  %67 = getelementptr inbounds [5 x i8], ptr %5, i64 0, i64 0
  %68 = call i32 @pg_utf_mblen_private(ptr noundef %67)
  store i32 %68, ptr %6, align 4
  %69 = load i32, ptr %6, align 4
  %70 = sext i32 %69 to i64
  %71 = getelementptr inbounds [5 x i8], ptr %5, i64 0, i64 %70
  store i8 0, ptr %71, align 1
  %72 = load ptr, ptr @Utf8ToServerConvProc, align 8
  %73 = call i64 @Int32GetDatum(i32 noundef 6)
  %74 = load i32, ptr %7, align 4
  %75 = call i64 @Int32GetDatum(i32 noundef %74)
  %76 = getelementptr inbounds [5 x i8], ptr %5, i64 0, i64 0
  %77 = call i64 @CStringGetDatum(ptr noundef %76)
  %78 = load ptr, ptr %4, align 8
  %79 = call i64 @CStringGetDatum(ptr noundef %78)
  %80 = load i32, ptr %6, align 4
  %81 = call i64 @Int32GetDatum(i32 noundef %80)
  %82 = call i64 @BoolGetDatum(i1 noundef zeroext false)
  %83 = call i64 @FunctionCall6Coll(ptr noundef %72, i32 noundef 0, i64 noundef %73, i64 noundef %75, i64 noundef %77, i64 noundef %79, i64 noundef %81, i64 noundef %82)
  store i32 0, ptr %8, align 4
  br label %84

84:                                               ; preds = %63, %37, %26
  call void @llvm.lifetime.end.p0(i64 4, ptr %7) #9
  call void @llvm.lifetime.end.p0(i64 4, ptr %6) #9
  call void @llvm.lifetime.end.p0(i64 5, ptr %5) #9
  %85 = load i32, ptr %8, align 4
  switch i32 %85, label %87 [
    i32 0, label %86
    i32 1, label %86
  ]

86:                                               ; preds = %84, %84
  ret void

87:                                               ; preds = %84
  unreachable
}