; Function Attrs: nounwind uwtable
define dso_local void @pg_unicode_to_server(i32 noundef %0, ptr noundef %1) local_unnamed_addr #0 {
  %3 = alloca [5 x i8], align 1
  call void @llvm.lifetime.start.p0(i64 5, ptr nonnull %3) #13
  %4 = add i32 %0, -1
  %5 = icmp ult i32 %4, 1114111
  %.sink24.i15.sroa.gep = getelementptr inbounds nuw i8, ptr %3, i64 1
  %.sink24.i15.sroa.gep17 = getelementptr inbounds nuw i8, ptr %3, i64 3
  %.sink24.i15.sroa.gep18 = getelementptr inbounds nuw i8, ptr %3, i64 2
  br i1 %5, label %10, label %6

6:                                                ; preds = %2
  %7 = tail call zeroext i1 @errstart_cold(i32 noundef 21, ptr noundef null) #14
  tail call void @llvm.assume(i1 %7)
  %8 = tail call i32 @errcode(i32 noundef 16801924) #13
  %9 = tail call i32 (ptr, ...) @errmsg(ptr noundef nonnull @.str.10) #13
  tail call void @errfinish(ptr noundef nonnull @.str.1, i32 noundef 877, ptr noundef nonnull @__func__.pg_unicode_to_server) #13
  unreachable

10:                                               ; preds = %2
  %11 = icmp samesign ult i32 %0, 128
  br i1 %11, label %12, label %15

12:                                               ; preds = %10
  %13 = trunc nuw nsw i32 %0 to i8
  store i8 %13, ptr %1, align 1
  %14 = getelementptr inbounds nuw i8, ptr %1, i64 1
  store i8 0, ptr %14, align 1
  br label %106

15:                                               ; preds = %10
  %16 = load ptr, ptr @DatabaseEncoding, align 8
  %17 = getelementptr inbounds nuw i8, ptr %16, i64 8
  %18 = load i32, ptr %17, align 8
  %19 = icmp eq i32 %18, 6
  br i1 %19, label %20, label %57

20:                                               ; preds = %15
  %21 = icmp samesign ult i32 %0, 2048
  br i1 %21, label %22, label %26

22:                                               ; preds = %20
  %23 = lshr i32 %0, 6
  %24 = trunc nuw i32 %23 to i8
  %25 = or disjoint i8 %24, -64
  store i8 %25, ptr %1, align 1
  br label %unicode_to_utf8.exit

26:                                               ; preds = %20
  %27 = icmp samesign ult i32 %0, 65536
  %28 = getelementptr inbounds nuw i8, ptr %1, i64 1
  br i1 %27, label %29, label %37

29:                                               ; preds = %26
  %30 = lshr i32 %0, 12
  %31 = trunc nuw i32 %30 to i8
  %32 = or disjoint i8 %31, -32
  store i8 %32, ptr %1, align 1
  %33 = lshr i32 %0, 6
  %34 = trunc i32 %33 to i8
  %35 = and i8 %34, 63
  %36 = or disjoint i8 %35, -128
  store i8 %36, ptr %28, align 1
  br label %unicode_to_utf8.exit

37:                                               ; preds = %26
  %38 = lshr i32 %0, 18
  %39 = trunc nuw i32 %38 to i8
  %40 = or disjoint i8 %39, -16
  store i8 %40, ptr %1, align 1
  %41 = lshr i32 %0, 12
  %42 = trunc i32 %41 to i8
  %43 = and i8 %42, 63
  %44 = or disjoint i8 %43, -128
  store i8 %44, ptr %28, align 1
  %45 = lshr i32 %0, 6
  %46 = trunc i32 %45 to i8
  %47 = and i8 %46, 63
  %48 = or disjoint i8 %47, -128
  %49 = getelementptr inbounds nuw i8, ptr %1, i64 2
  store i8 %48, ptr %49, align 1
  br label %unicode_to_utf8.exit

unicode_to_utf8.exit:                             ; preds = %22, %29, %37
  %.sink24.i = phi i64 [ 1, %22 ], [ 3, %37 ], [ 2, %29 ]
  %50 = trunc i32 %0 to i8
  %51 = and i8 %50, 63
  %52 = or disjoint i8 %51, -128
  %53 = getelementptr inbounds nuw i8, ptr %1, i64 %.sink24.i
  store i8 %52, ptr %53, align 1
  %54 = tail call i32 @pg_utf_mblen_private(ptr noundef nonnull %1) #13
  %55 = sext i32 %54 to i64
  %56 = getelementptr inbounds i8, ptr %1, i64 %55
  store i8 0, ptr %56, align 1
  br label %106

57:                                               ; preds = %15
  %58 = load ptr, ptr @Utf8ToServerConvProc, align 8
  %59 = icmp eq ptr %58, null
  br i1 %59, label %60, label %67

60:                                               ; preds = %57
  %61 = tail call zeroext i1 @errstart_cold(i32 noundef 21, ptr noundef null) #14
  tail call void @llvm.assume(i1 %61)
  %62 = tail call i32 @errcode(i32 noundef 1088) #13
  %63 = load ptr, ptr getelementptr inbounds nuw (i8, ptr @pg_enc2name_tbl, i64 96), align 8
  %64 = load ptr, ptr @DatabaseEncoding, align 8
  %65 = load ptr, ptr %64, align 8
  %66 = tail call i32 (ptr, ...) @errmsg(ptr noundef nonnull @.str, ptr noundef %63, ptr noundef %65) #13
  tail call void @errfinish(ptr noundef nonnull @.str.1, i32 noundef 902, ptr noundef nonnull @__func__.pg_unicode_to_server) #13
  unreachable

67:                                               ; preds = %57
  %68 = icmp samesign ult i32 %0, 2048
  br i1 %68, label %69, label %73

69:                                               ; preds = %67
  %70 = lshr i32 %0, 6
  %71 = trunc nuw i32 %70 to i8
  %72 = or disjoint i8 %71, -64
  store i8 %72, ptr %3, align 1
  br label %unicode_to_utf8.exit16

73:                                               ; preds = %67
  %74 = icmp samesign ult i32 %0, 65536
  br i1 %74, label %75, label %83

75:                                               ; preds = %73
  %76 = lshr i32 %0, 12
  %77 = trunc nuw i32 %76 to i8
  %78 = or disjoint i8 %77, -32
  store i8 %78, ptr %3, align 1
  %79 = lshr i32 %0, 6
  %80 = trunc i32 %79 to i8
  %81 = and i8 %80, 63
  %82 = or disjoint i8 %81, -128
  store i8 %82, ptr %.sink24.i15.sroa.gep, align 1
  br label %unicode_to_utf8.exit16

83:                                               ; preds = %73
  %84 = lshr i32 %0, 18
  %85 = trunc nuw i32 %84 to i8
  %86 = or disjoint i8 %85, -16
  store i8 %86, ptr %3, align 1
  %87 = lshr i32 %0, 12
  %88 = trunc i32 %87 to i8
  %89 = and i8 %88, 63
  %90 = or disjoint i8 %89, -128
  store i8 %90, ptr %.sink24.i15.sroa.gep, align 1
  %91 = lshr i32 %0, 6
  %92 = trunc i32 %91 to i8
  %93 = and i8 %92, 63
  %94 = or disjoint i8 %93, -128
  store i8 %94, ptr %.sink24.i15.sroa.gep18, align 1
  br label %unicode_to_utf8.exit16

unicode_to_utf8.exit16:                           ; preds = %69, %75, %83
  %.sink24.i15.sroa.phi = phi ptr [ %.sink24.i15.sroa.gep, %69 ], [ %.sink24.i15.sroa.gep17, %83 ], [ %.sink24.i15.sroa.gep18, %75 ]
  %95 = trunc i32 %0 to i8
  %96 = and i8 %95, 63
  %97 = or disjoint i8 %96, -128
  store i8 %97, ptr %.sink24.i15.sroa.phi, align 1
  %98 = call i32 @pg_utf_mblen_private(ptr noundef nonnull %3) #13
  %99 = sext i32 %98 to i64
  %100 = getelementptr inbounds [5 x i8], ptr %3, i64 0, i64 %99
  store i8 0, ptr %100, align 1
  %101 = load ptr, ptr @Utf8ToServerConvProc, align 8
  %102 = sext i32 %18 to i64
  %103 = ptrtoint ptr %3 to i64
  %104 = ptrtoint ptr %1 to i64
  %105 = call i64 @FunctionCall6Coll(ptr noundef %101, i32 noundef 0, i64 noundef 6, i64 noundef %102, i64 noundef %103, i64 noundef %104, i64 noundef %99, i64 noundef 0) #13
  br label %106

106:                                              ; preds = %unicode_to_utf8.exit16, %unicode_to_utf8.exit, %12
  call void @llvm.lifetime.end.p0(i64 5, ptr nonnull %3) #13
  ret void
}